; Function Attrs: mustprogress nofree nounwind willreturn memory(read) uwtable
define ptr @faiss_IndexPreTransform_cast(ptr noundef readonly %0) local_unnamed_addr #4 {
  %2 = icmp eq ptr %0, null
  br i1 %2, label %5, label %3

3:                                                ; preds = %1
  %4 = tail call ptr @__dynamic_cast(ptr nonnull %0, ptr nonnull @_ZTIN5faiss5IndexE, ptr nonnull @_ZTIN5faiss17IndexPreTransformE, i64 0) #21
  br label %5

5:                                                ; preds = %1, %3
  %6 = phi ptr [ %4, %3 ], [ null, %1 ]
  ret ptr %6
}